target datalayout = "e-m:e-p270:32:32-p271:32:32-p272:64:64-i64:64-i128:128-f80:128-n8:16:32:64-S128"
target triple = "x86_64-pc-linux-gnu"

%"class.ceres::internal::DenseCholesky" = type { ptr }
%"class.ceres::internal::CUDADenseCholesky" = type <{ %"class.ceres::internal::DenseCholesky", ptr, i64, %"class.ceres::internal::CudaBuffer", %"class.ceres::internal::CudaBuffer", %"class.ceres::internal::CudaBuffer", %"class.ceres::internal::CudaBuffer.196", i32, [4 x i8] }>
%"class.ceres::internal::CudaBuffer" = type { ptr, i64, ptr }
%"class.ceres::internal::CudaBuffer.196" = type { ptr, i64, ptr }

@_ZTVN5ceres8internal13DenseCholeskyE = hidden unnamed_addr constant { [6 x ptr] } { [6 x ptr] [ptr null, ptr @_ZTIN5ceres8internal13DenseCholeskyE, ptr @_ZN5ceres8internal13DenseCholeskyD1Ev, ptr @_ZN5ceres8internal13DenseCholeskyD0Ev, ptr @__cxa_pure_virtual, ptr @__cxa_pure_virtual] }, align 8

; Function Attrs: mustprogress nounwind uwtable
define hidden void @_ZN5ceres8internal13DenseCholeskyD2Ev(ptr noundef nonnull align 8 dereferenceable(8) %0) unnamed_addr #1 align 2 {
  %2 = alloca ptr, align 8
  store ptr %0, ptr %2, align 8
  ret void
}

; Function Attrs: mustprogress uwtable
define linkonce_odr hidden void @_ZN5ceres8internal10CudaBufferIiEC2EPNS0_11ContextImplEi(ptr noundef nonnull align 8 dereferenceable(24) %0, ptr noundef %1, i32 noundef %2) unnamed_addr #2 comdat align 2 {
  %4 = alloca ptr, align 8
  %5 = alloca ptr, align 8
  %6 = alloca i32, align 4
  store ptr %0, ptr %4, align 8
  store ptr %1, ptr %5, align 8
  store i32 %2, ptr %6, align 4
  %7 = load ptr, ptr %4, align 8
  %8 = getelementptr inbounds %"class.ceres::internal::CudaBuffer.196", ptr %7, i32 0, i32 0
  store ptr null, ptr %8, align 8
  %9 = getelementptr inbounds %"class.ceres::internal::CudaBuffer.196", ptr %7, i32 0, i32 1
  store i64 0, ptr %9, align 8
  %10 = getelementptr inbounds %"class.ceres::internal::CudaBuffer.196", ptr %7, i32 0, i32 2
  %11 = load ptr, ptr %5, align 8
  store ptr %11, ptr %10, align 8
  %12 = load i32, ptr %6, align 4
  %13 = sext i32 %12 to i64
  call void @_ZN5ceres8internal10CudaBufferIiE7ReserveEm(ptr noundef nonnull align 8 dereferenceable(24) %7, i64 noundef %13)
  ret void
}

; Function Attrs: mustprogress nounwind uwtable
define linkonce_odr hidden void @_ZN5ceres8internal10CudaBufferIdEC2EPNS0_11ContextImplE(ptr noundef nonnull align 8 dereferenceable(24) %0, ptr noundef %1) unnamed_addr #1 comdat align 2 {
  %3 = alloca ptr, align 8
  %4 = alloca ptr, align 8
  store ptr %0, ptr %3, align 8
  store ptr %1, ptr %4, align 8
  %5 = load ptr, ptr %3, align 8
  %6 = getelementptr inbounds %"class.ceres::internal::CudaBuffer", ptr %5, i32 0, i32 0
  store ptr null, ptr %6, align 8
  %7 = getelementptr inbounds %"class.ceres::internal::CudaBuffer", ptr %5, i32 0, i32 1
  store i64 0, ptr %7, align 8
  %8 = getelementptr inbounds %"class.ceres::internal::CudaBuffer", ptr %5, i32 0, i32 2
  %9 = load ptr, ptr %4, align 8
  store ptr %9, ptr %8, align 8
  ret void
}

; Function Attrs: mustprogress nounwind uwtable
define linkonce_odr hidden void @_ZN5ceres8internal13DenseCholeskyC2Ev(ptr noundef nonnull align 8 dereferenceable(8) %0) unnamed_addr #1 comdat align 2 {
  %2 = alloca ptr, align 8
  store ptr %0, ptr %2, align 8
  %3 = load ptr, ptr %2, align 8
  store ptr getelementptr inbounds ({ [6 x ptr] }, ptr @_ZTVN5ceres8internal13DenseCholeskyE, i32 0, i32 0, i32 2), ptr %3, align 8
  ret void
}

; Function Attrs: mustprogress uwtable
define hidden void @_ZN5ceres8internal17CUDADenseCholeskyC2EPNS0_11ContextImplE(ptr noundef nonnull align 8 dereferenceable(128) %0, ptr noundef %1) unnamed_addr #2 align 2 personality ptr @__gxx_personality_v0 {
  %3 = alloca ptr, align 8
  %4 = alloca ptr, align 8
  %5 = alloca ptr, align 8
  %6 = alloca i32, align 4
  store ptr %0, ptr %3, align 8
  store ptr %1, ptr %4, align 8
  %7 = load ptr, ptr %3, align 8
  call void @_ZN5ceres8internal13DenseCholeskyC2Ev(ptr noundef nonnull align 8 dereferenceable(8) %7) #14
  store ptr getelementptr inbounds ({ [6 x ptr] }, ptr @_ZTVN5ceres8internal17CUDADenseCholeskyE, i32 0, i32 0, i32 2), ptr %7, align 8
  %8 = getelementptr inbounds %"class.ceres::internal::CUDADenseCholesky", ptr %7, i32 0, i32 1
  %9 = load ptr, ptr %4, align 8
  store ptr %9, ptr %8, align 8
  %10 = getelementptr inbounds %"class.ceres::internal::CUDADenseCholesky", ptr %7, i32 0, i32 2
  store i64 0, ptr %10, align 8
  %11 = getelementptr inbounds %"class.ceres::internal::CUDADenseCholesky", ptr %7, i32 0, i32 3
  %12 = load ptr, ptr %4, align 8
  invoke void @_ZN5ceres8internal10CudaBufferIdEC2EPNS0_11ContextImplE(ptr noundef nonnull align 8 dereferenceable(24) %11, ptr noundef %12)
          to label %13 unwind label %24

13:                                               ; preds = %2
  %14 = getelementptr inbounds %"class.ceres::internal::CUDADenseCholesky", ptr %7, i32 0, i32 4
  %15 = load ptr, ptr %4, align 8
  invoke void @_ZN5ceres8internal10CudaBufferIdEC2EPNS0_11ContextImplE(ptr noundef nonnull align 8 dereferenceable(24) %14, ptr noundef %15)
          to label %16 unwind label %28

16:                                               ; preds = %13
  %17 = getelementptr inbounds %"class.ceres::internal::CUDADenseCholesky", ptr %7, i32 0, i32 5
  %18 = load ptr, ptr %4, align 8
  invoke void @_ZN5ceres8internal10CudaBufferIdEC2EPNS0_11ContextImplE(ptr noundef nonnull align 8 dereferenceable(24) %17, ptr noundef %18)
          to label %19 unwind label %32

19:                                               ; preds = %16
  %20 = getelementptr inbounds %"class.ceres::internal::CUDADenseCholesky", ptr %7, i32 0, i32 6
  %21 = load ptr, ptr %4, align 8
  invoke void @_ZN5ceres8internal10CudaBufferIiEC2EPNS0_11ContextImplEi(ptr noundef nonnull align 8 dereferenceable(24) %20, ptr noundef %21, i32 noundef 1)
          to label %22 unwind label %36

22:                                               ; preds = %19
  %23 = getelementptr inbounds %"class.ceres::internal::CUDADenseCholesky", ptr %7, i32 0, i32 7
  store i32 3, ptr %23, align 8
  ret void

24:                                               ; preds = %2
  %25 = landingpad { ptr, i32 }
          cleanup
  %26 = extractvalue { ptr, i32 } %25, 0
  store ptr %26, ptr %5, align 8
  %27 = extractvalue { ptr, i32 } %25, 1
  store i32 %27, ptr %6, align 4
  br label %42

28:                                               ; preds = %13
  %29 = landingpad { ptr, i32 }
          cleanup
  %30 = extractvalue { ptr, i32 } %29, 0
  store ptr %30, ptr %5, align 8
  %31 = extractvalue { ptr, i32 } %29, 1
  store i32 %31, ptr %6, align 4
  br label %41

32:                                               ; preds = %16
  %33 = landingpad { ptr, i32 }
          cleanup
  %34 = extractvalue { ptr, i32 } %33, 0
  store ptr %34, ptr %5, align 8
  %35 = extractvalue { ptr, i32 } %33, 1
  store i32 %35, ptr %6, align 4
  br label %40

36:                                               ; preds = %19
  %37 = landingpad { ptr, i32 }
          cleanup
  %38 = extractvalue { ptr, i32 } %37, 0
  store ptr %38, ptr %5, align 8
  %39 = extractvalue { ptr, i32 } %37, 1
  store i32 %39, ptr %6, align 4
  call void @_ZN5ceres8internal10CudaBufferIdED2Ev(ptr noundef nonnull align 8 dereferenceable(24) %17) #14
  br label %40

40:                                               ; preds = %36, %32
  call void @_ZN5ceres8internal10CudaBufferIdED2Ev(ptr noundef nonnull align 8 dereferenceable(24) %14) #14
  br label %41

41:                                               ; preds = %40, %28
  call void @_ZN5ceres8internal10CudaBufferIdED2Ev(ptr noundef nonnull align 8 dereferenceable(24) %11) #14
  br label %42

42:                                               ; preds = %41, %24
  call void @_ZN5ceres8internal13DenseCholeskyD2Ev(ptr noundef nonnull align 8 dereferenceable(8) %7) #14
  br label %43

43:                                               ; preds = %42
  %44 = load ptr, ptr %5, align 8
  %45 = load i32, ptr %6, align 4
  %46 = insertvalue { ptr, i32 } poison, ptr %44, 0
  %47 = insertvalue { ptr, i32 } %46, i32 %45, 1
  resume { ptr, i32 } %47
}