; Function Attrs: mustprogress uwtable
define hidden void @_ZN5ceres8internal17CUDADenseCholeskyC2EPNS0_11ContextImplE(ptr noundef nonnull align 8 dereferenceable(128) %0, ptr noundef %1) unnamed_addr #3 align 2 personality ptr @__gxx_personality_v0 {
  store ptr getelementptr inbounds ({ [6 x ptr] }, ptr @_ZTVN5ceres8internal17CUDADenseCholeskyE, i64 0, i32 0, i64 2), ptr %0, align 8
  %3 = getelementptr inbounds i8, ptr %0, i64 8
  store ptr %1, ptr %3, align 8
  %4 = getelementptr inbounds i8, ptr %0, i64 16
  %5 = getelementptr inbounds i8, ptr %0, i64 40
  tail call void @llvm.memset.p0.i64(ptr noundef nonnull align 8 dereferenceable(24) %4, i8 0, i64 24, i1 false)
  store ptr %1, ptr %5, align 8
  %6 = getelementptr inbounds i8, ptr %0, i64 48
  %7 = getelementptr inbounds i8, ptr %0, i64 64
  tail call void @llvm.memset.p0.i64(ptr noundef nonnull align 8 dereferenceable(16) %6, i8 0, i64 16, i1 false)
  store ptr %1, ptr %7, align 8
  %8 = getelementptr inbounds i8, ptr %0, i64 72
  %9 = getelementptr inbounds i8, ptr %0, i64 88
  tail call void @llvm.memset.p0.i64(ptr noundef nonnull align 8 dereferenceable(16) %8, i8 0, i64 16, i1 false)
  store ptr %1, ptr %9, align 8
  %10 = getelementptr inbounds i8, ptr %0, i64 96
  %11 = getelementptr inbounds i8, ptr %0, i64 112
  tail call void @llvm.memset.p0.i64(ptr noundef nonnull align 8 dereferenceable(16) %10, i8 0, i64 16, i1 false)
  store ptr %1, ptr %11, align 8
  invoke void @_ZN5ceres8internal10CudaBufferIiE7ReserveEm(ptr noundef nonnull align 8 dereferenceable(24) %10, i64 noundef 1)
          to label %_ZN5ceres8internal10CudaBufferIiEC2EPNS0_11ContextImplEi.exit unwind label %13

_ZN5ceres8internal10CudaBufferIiEC2EPNS0_11ContextImplEi.exit: ; preds = %2
  %12 = getelementptr inbounds i8, ptr %0, i64 120
  store i32 3, ptr %12, align 8
  ret void

13:                                               ; preds = %2
  %14 = landingpad { ptr, i32 }
          cleanup
  %15 = getelementptr inbounds i8, ptr %0, i64 24
  tail call void @_ZN5ceres8internal10CudaBufferIdED2Ev(ptr noundef nonnull align 8 dereferenceable(24) %8) #26
  tail call void @_ZN5ceres8internal10CudaBufferIdED2Ev(ptr noundef nonnull align 8 dereferenceable(24) %6) #26
  tail call void @_ZN5ceres8internal10CudaBufferIdED2Ev(ptr noundef nonnull align 8 dereferenceable(24) %15) #26
  resume { ptr, i32 } %14
}